; Function Attrs: mustprogress uwtable
define internal fastcc void @_ZN9benchmark12_GLOBAL__N_18PrintImpIRA50_KcJPcEEEvRSoOT_DpOT0_(ptr noundef nonnull readonly align 8 captures(none) dereferenceable(8) %0) unnamed_addr #3 {
  %2 = alloca i8, align 1
  %3 = tail call noundef nonnull align 8 dereferenceable(8) ptr @_ZSt16__ostream_insertIcSt11char_traitsIcEERSt13basic_ostreamIT_T0_ES6_PKS3_l(ptr noundef nonnull align 8 dereferenceable(8) @_ZSt4cerr, ptr noundef nonnull @.str.2, i64 noundef 49)
  %.val = load ptr, ptr %0, align 8, !tbaa !11
  %.not.i.i = icmp eq ptr %.val, null
  br i1 %.not.i.i, label %4, label %12

4:                                                ; preds = %1
  %5 = load ptr, ptr @_ZSt4cerr, align 8, !tbaa !38
  %6 = getelementptr i8, ptr %5, i64 -24
  %7 = load i64, ptr %6, align 8
  %8 = getelementptr inbounds i8, ptr @_ZSt4cerr, i64 %7
  %9 = getelementptr inbounds nuw i8, ptr %8, i64 32
  %10 = load i32, ptr %9, align 8, !tbaa !40
  %11 = or i32 %10, 1
  tail call void @_ZNSt9basic_iosIcSt11char_traitsIcEE5clearESt12_Ios_Iostate(ptr noundef nonnull align 8 dereferenceable(264) %8, i32 noundef %11)
  br label %_ZStlsISt11char_traitsIcEERSt13basic_ostreamIcT_ES5_PKc.exit.i

12:                                               ; preds = %1
  %13 = tail call noundef i64 @strlen(ptr noundef nonnull dereferenceable(1) %.val) #25
  %14 = tail call noundef nonnull align 8 dereferenceable(8) ptr @_ZSt16__ostream_insertIcSt11char_traitsIcEERSt13basic_ostreamIT_T0_ES6_PKS3_l(ptr noundef nonnull align 8 dereferenceable(8) @_ZSt4cerr, ptr noundef nonnull %.val, i64 noundef %13)
  br label %_ZStlsISt11char_traitsIcEERSt13basic_ostreamIcT_ES5_PKc.exit.i

_ZStlsISt11char_traitsIcEERSt13basic_ostreamIcT_ES5_PKc.exit.i: ; preds = %12, %4
  call void @llvm.lifetime.start.p0(i64 1, ptr nonnull %2)
  store i8 10, ptr %2, align 1, !tbaa !32
  %15 = load ptr, ptr @_ZSt4cerr, align 8, !tbaa !38
  %16 = getelementptr i8, ptr %15, i64 -24
  %17 = load i64, ptr %16, align 8
  %18 = getelementptr inbounds i8, ptr @_ZSt4cerr, i64 %17
  %19 = getelementptr inbounds nuw i8, ptr %18, i64 16
  %20 = load i64, ptr %19, align 8, !tbaa !115
  %.not.i.i.i = icmp eq i64 %20, 0
  br i1 %.not.i.i.i, label %23, label %21

21:                                               ; preds = %_ZStlsISt11char_traitsIcEERSt13basic_ostreamIcT_ES5_PKc.exit.i
  %22 = call noundef nonnull align 8 dereferenceable(8) ptr @_ZSt16__ostream_insertIcSt11char_traitsIcEERSt13basic_ostreamIT_T0_ES6_PKS3_l(ptr noundef nonnull align 8 dereferenceable(8) @_ZSt4cerr, ptr noundef nonnull %2, i64 noundef 1)
  br label %_ZN9benchmark12_GLOBAL__N_18PrintImpIPcJEEEvRSoOT_DpOT0_.exit

23:                                               ; preds = %_ZStlsISt11char_traitsIcEERSt13basic_ostreamIcT_ES5_PKc.exit.i
  %24 = tail call noundef nonnull align 8 dereferenceable(8) ptr @_ZNSo3putEc(ptr noundef nonnull align 8 dereferenceable(8) @_ZSt4cerr, i8 noundef signext 10)
  br label %_ZN9benchmark12_GLOBAL__N_18PrintImpIPcJEEEvRSoOT_DpOT0_.exit

_ZN9benchmark12_GLOBAL__N_18PrintImpIPcJEEEvRSoOT_DpOT0_.exit: ; preds = %21, %23
  call void @llvm.lifetime.end.p0(i64 1, ptr nonnull %2)
  ret void
}